target datalayout = "e-m:e-p270:32:32-p271:32:32-p272:64:64-i64:64-i128:128-f80:128-n8:16:32:64-S128"
target triple = "x86_64-unknown-linux-gnu"

%"class.std::__cxx11::basic_string" = type { %"struct.std::__cxx11::basic_string<char>::_Alloc_hider", i64, %union.anon }
%"struct.std::__cxx11::basic_string<char>::_Alloc_hider" = type { ptr }
%union.anon = type { i64, [8 x i8] }
%"class.fmt::v8::basic_string_view" = type { ptr, i64 }
%"class.fmt::v8::basic_format_string" = type { %"class.fmt::v8::basic_string_view" }
%"class.fmt::v8::basic_format_args" = type { i64, %union.anon.31 }
%union.anon.31 = type { ptr }
%"class.fmt::v8::format_arg_store" = type { %"struct.fmt::v8::detail::arg_data" }
%"struct.fmt::v8::detail::arg_data" = type { [1 x %"class.fmt::v8::detail::value"] }
%"class.fmt::v8::detail::value" = type { %union.anon.32 }
%union.anon.32 = type { i128 }
%"class.std::allocator" = type { i8 }
%"struct.fmt::v8::detail::arg_mapper" = type { i8 }

@.str = private unnamed_addr constant [7 x i8] c"MALLOC\00", align 1
@.str.2 = private unnamed_addr constant [5 x i8] c"MMAP\00", align 1
@.str.3 = private unnamed_addr constant [12 x i8] c"UNKNOWN: {}\00", align 1
@.str.11 = private unnamed_addr constant [50 x i8] c"basic_string: construction from null is not valid\00", align 1

; Function Attrs: mustprogress nounwind uwtable
define linkonce_odr void @_ZNSt7__cxx1112basic_stringIcSt11char_traitsIcESaIcEE12_Alloc_hiderD2Ev(ptr noundef nonnull align 8 dereferenceable(8) %this) unnamed_addr #5 comdat align 2 {
entry:
  %this.addr = alloca ptr, align 8
  store ptr %this, ptr %this.addr, align 8
  %this1 = load ptr, ptr %this.addr, align 8
  call void @_ZNSaIcED2Ev(ptr noundef nonnull align 1 dereferenceable(1) %this1) #3
  ret void
}

; Function Attrs: mustprogress uwtable
define linkonce_odr { i64, i64 } @_ZN3fmt2v816make_format_argsINS0_20basic_format_contextINS0_8appenderEcEEJRiEEENS0_16format_arg_storeIT_JDpNSt9remove_cvINSt16remove_referenceIT0_E4typeEE4typeEEEEDpOSA_(ptr noundef nonnull align 4 dereferenceable(4) %args) #4 comdat {
entry:
  %this.addr.i11 = alloca ptr, align 8
  %val.addr.i12 = alloca i32, align 4
  %this.addr.i8 = alloca ptr, align 8
  %val.addr.i9 = alloca i32, align 4
  %this.addr.i6 = alloca ptr, align 8
  %.addr.i = alloca ptr, align 8
  %.addr1.i = alloca i32, align 4
  %.addr2.i = alloca i32, align 4
  %.addr3.i = alloca ptr, align 8
  %this.addr.i4 = alloca ptr, align 8
  %init.addr.i = alloca ptr, align 8
  %retval.i = alloca %"class.fmt::v8::detail::value", align 16
  %val.addr.i = alloca ptr, align 8
  %arg.i = alloca ptr, align 8
  %ref.tmp.i2 = alloca i32, align 4
  %ref.tmp1.i = alloca %"struct.fmt::v8::detail::arg_mapper", align 1
  %formattable_char.i = alloca i8, align 1
  %formattable_const.i = alloca i8, align 1
  %formattable_pointer.i = alloca i8, align 1
  %formattable.i = alloca i8, align 1
  %this.addr.i = alloca ptr, align 8
  %args.addr.i = alloca ptr, align 8
  %ref.tmp.i = alloca %"class.fmt::v8::detail::value", align 16
  %retval = alloca %"class.fmt::v8::format_arg_store", align 16
  %args.addr = alloca ptr, align 8
  store ptr %args, ptr %args.addr, align 8
  %0 = load ptr, ptr %args.addr, align 8
  store ptr %retval, ptr %this.addr.i, align 8
  store ptr %0, ptr %args.addr.i, align 8
  %this1.i = load ptr, ptr %this.addr.i, align 8
  %1 = load ptr, ptr %args.addr.i, align 8
  store ptr %1, ptr %val.addr.i, align 8
  %2 = load ptr, ptr %val.addr.i, align 8
  %3 = load i32, ptr %2, align 4
  store ptr %ref.tmp1.i, ptr %this.addr.i8, align 8
  store i32 %3, ptr %val.addr.i9, align 4
  %4 = load i32, ptr %val.addr.i9, align 4
  store i32 %4, ptr %ref.tmp.i2, align 4
  store ptr %ref.tmp.i2, ptr %arg.i, align 8
  store i8 1, ptr %formattable_char.i, align 1
  store i8 1, ptr %formattable_const.i, align 1
  store i8 1, ptr %formattable_pointer.i, align 1
  store i8 1, ptr %formattable.i, align 1
  %5 = load ptr, ptr %arg.i, align 8
  %6 = load i32, ptr %5, align 4
  store ptr %retval.i, ptr %this.addr.i11, align 8
  store i32 %6, ptr %val.addr.i12, align 4
  %this1.i13 = load ptr, ptr %this.addr.i11, align 8
  %7 = load i32, ptr %val.addr.i12, align 4
  store i32 %7, ptr %this1.i13, align 16
  %8 = load { i64, i64 }, ptr %retval.i, align 16
  %9 = extractvalue { i64, i64 } %8, 0
  store i64 %9, ptr %ref.tmp.i, align 16
  %10 = getelementptr inbounds { i64, i64 }, ptr %ref.tmp.i, i32 0, i32 1
  %11 = extractvalue { i64, i64 } %8, 1
  store i64 %11, ptr %10, align 8
  store ptr %this1.i, ptr %this.addr.i4, align 8
  store ptr %ref.tmp.i, ptr %init.addr.i, align 8
  %this1.i5 = load ptr, ptr %this.addr.i4, align 8
  %12 = load ptr, ptr %init.addr.i, align 8
  call void @llvm.memcpy.p0.p0.i64(ptr align 16 %this1.i5, ptr align 16 %12, i64 16, i1 false)
  store ptr %this1.i, ptr %this.addr.i6, align 8
  %13 = load ptr, ptr %args.addr.i, align 8
  store ptr null, ptr %.addr.i, align 8
  store i32 0, ptr %.addr1.i, align 4
  store i32 0, ptr %.addr2.i, align 4
  store ptr %13, ptr %.addr3.i, align 8
  %coerce.dive = getelementptr inbounds %"class.fmt::v8::format_arg_store", ptr %retval, i32 0, i32 0
  %coerce.dive1 = getelementptr inbounds %"struct.fmt::v8::detail::arg_data", ptr %coerce.dive, i32 0, i32 0
  %14 = load { i64, i64 }, ptr %coerce.dive1, align 16
  ret { i64, i64 } %14
}

; Function Attrs: mustprogress nounwind uwtable
define linkonce_odr noundef i64 @_ZNSt11char_traitsIcE6lengthEPKc(ptr noundef %__s) #5 comdat align 2 {
entry:
  %__s.addr = alloca ptr, align 8
  store ptr %__s, ptr %__s.addr, align 8
  %0 = load ptr, ptr %__s.addr, align 8
  %call = call i64 @strlen(ptr noundef %0) #3
  ret i64 %call
}

; Function Attrs: mustprogress uwtable
define linkonce_odr void @_ZNSt7__cxx1112basic_stringIcSt11char_traitsIcESaIcEEC2IS3_EEPKcRKS3_(ptr noundef nonnull align 8 dereferenceable(32) %this, ptr noundef %__s, ptr noundef nonnull align 1 dereferenceable(1) %__a) unnamed_addr #4 comdat align 2 personality ptr @__gxx_personality_v0 {
entry:
  %this.addr = alloca ptr, align 8
  %__s.addr = alloca ptr, align 8
  %__a.addr = alloca ptr, align 8
  %exn.slot = alloca ptr, align 8
  %ehselector.slot = alloca i32, align 4
  %__end = alloca ptr, align 8
  store ptr %this, ptr %this.addr, align 8
  store ptr %__s, ptr %__s.addr, align 8
  store ptr %__a, ptr %__a.addr, align 8
  %this1 = load ptr, ptr %this.addr, align 8
  %_M_dataplus = getelementptr inbounds %"class.std::__cxx11::basic_string", ptr %this1, i32 0, i32 0
  %call = call noundef ptr @_ZNSt7__cxx1112basic_stringIcSt11char_traitsIcESaIcEE13_M_local_dataEv(ptr noundef nonnull align 8 dereferenceable(32) %this1)
  %0 = load ptr, ptr %__a.addr, align 8
  call void @_ZNSt7__cxx1112basic_stringIcSt11char_traitsIcESaIcEE12_Alloc_hiderC1EPcRKS3_(ptr noundef nonnull align 8 dereferenceable(8) %_M_dataplus, ptr noundef %call, ptr noundef nonnull align 1 dereferenceable(1) %0)
  %1 = load ptr, ptr %__s.addr, align 8
  %cmp = icmp eq ptr %1, null
  br i1 %cmp, label %if.then, label %if.end

if.then:                                          ; preds = %entry
  invoke void @_ZSt19__throw_logic_errorPKc(ptr noundef @.str.11) #19
          to label %invoke.cont unwind label %lpad

invoke.cont:                                      ; preds = %if.then
  unreachable

lpad:                                             ; preds = %invoke.cont2, %if.end, %if.then
  %2 = landingpad { ptr, i32 }
          cleanup
  %3 = extractvalue { ptr, i32 } %2, 0
  store ptr %3, ptr %exn.slot, align 8
  %4 = extractvalue { ptr, i32 } %2, 1
  store i32 %4, ptr %ehselector.slot, align 4
  call void @_ZNSt7__cxx1112basic_stringIcSt11char_traitsIcESaIcEE12_Alloc_hiderD2Ev(ptr noundef nonnull align 8 dereferenceable(8) %_M_dataplus) #3
  br label %eh.resume

if.end:                                           ; preds = %entry
  %5 = load ptr, ptr %__s.addr, align 8
  %6 = load ptr, ptr %__s.addr, align 8
  %call3 = invoke noundef i64 @_ZNSt11char_traitsIcE6lengthEPKc(ptr noundef %6)
          to label %invoke.cont2 unwind label %lpad

invoke.cont2:                                     ; preds = %if.end
  %add.ptr = getelementptr inbounds i8, ptr %5, i64 %call3
  store ptr %add.ptr, ptr %__end, align 8
  %7 = load ptr, ptr %__s.addr, align 8
  %8 = load ptr, ptr %__end, align 8
  invoke void @_ZNSt7__cxx1112basic_stringIcSt11char_traitsIcESaIcEE12_M_constructIPKcEEvT_S8_St20forward_iterator_tag(ptr noundef nonnull align 8 dereferenceable(32) %this1, ptr noundef %7, ptr noundef %8)
          to label %invoke.cont4 unwind label %lpad

invoke.cont4:                                     ; preds = %invoke.cont2
  ret void

eh.resume:                                        ; preds = %lpad
  %exn = load ptr, ptr %exn.slot, align 8
  %sel = load i32, ptr %ehselector.slot, align 4
  %lpad.val = insertvalue { ptr, i32 } poison, ptr %exn, 0
  %lpad.val5 = insertvalue { ptr, i32 } %lpad.val, i32 %sel, 1
  resume { ptr, i32 } %lpad.val5
}

; Function Attrs: mustprogress uwtable
define void @_ZN8facebook5velox6memory15MemoryAllocator10kindStringB5cxx11ENS2_4KindE(ptr noalias sret(%"class.std::__cxx11::basic_string") align 8 %agg.result, i32 noundef %kind) #4 align 2 personality ptr @__gxx_personality_v0 {
entry:
  %.addr.i = alloca ptr, align 8
  %this.addr.i15 = alloca ptr, align 8
  %s.addr.i16 = alloca ptr, align 8
  %this.addr.i13 = alloca ptr, align 8
  %desc.addr.i = alloca i64, align 8
  %values.addr.i = alloca ptr, align 8
  %this.addr.i11 = alloca ptr, align 8
  %this.addr.i9 = alloca ptr, align 8
  %store.addr.i = alloca ptr, align 8
  %retval.i = alloca %"class.fmt::v8::basic_string_view", align 8
  %this.addr.i7 = alloca ptr, align 8
  %this.addr.i = alloca ptr, align 8
  %s.addr.i = alloca ptr, align 8
  %result.ptr.i = alloca ptr, align 8
  %fmt.i = alloca %"class.fmt::v8::basic_format_string", align 8
  %args.addr.i = alloca ptr, align 8
  %agg.tmp.i = alloca %"class.fmt::v8::basic_string_view", align 8
  %agg.tmp1.i = alloca %"class.fmt::v8::basic_format_args", align 8
  %ref.tmp.i = alloca %"class.fmt::v8::format_arg_store", align 16
  %result.ptr = alloca ptr, align 8
  %kind.addr = alloca i32, align 4
  %ref.tmp = alloca %"class.std::allocator", align 1
  %exn.slot = alloca ptr, align 8
  %ehselector.slot = alloca i32, align 4
  %ref.tmp2 = alloca %"class.std::allocator", align 1
  %agg.tmp = alloca %"class.fmt::v8::basic_format_string", align 8
  %ref.tmp5 = alloca i32, align 4
  store ptr %agg.result, ptr %result.ptr, align 8
  store i32 %kind, ptr %kind.addr, align 4
  %0 = load i32, ptr %kind.addr, align 4
  switch i32 %0, label %sw.default [
    i32 0, label %sw.bb
    i32 1, label %sw.bb1
  ]

sw.bb:                                            ; preds = %entry
  call void @_ZNSaIcEC1Ev(ptr noundef nonnull align 1 dereferenceable(1) %ref.tmp) #3
  invoke void @_ZNSt7__cxx1112basic_stringIcSt11char_traitsIcESaIcEEC2IS3_EEPKcRKS3_(ptr noundef nonnull align 8 dereferenceable(32) %agg.result, ptr noundef @.str, ptr noundef nonnull align 1 dereferenceable(1) %ref.tmp)
          to label %invoke.cont unwind label %lpad

invoke.cont:                                      ; preds = %sw.bb
  call void @_ZNSaIcED1Ev(ptr noundef nonnull align 1 dereferenceable(1) %ref.tmp) #3
  br label %return

lpad:                                             ; preds = %sw.bb
  %1 = landingpad { ptr, i32 }
          cleanup
  %2 = extractvalue { ptr, i32 } %1, 0
  store ptr %2, ptr %exn.slot, align 8
  %3 = extractvalue { ptr, i32 } %1, 1
  store i32 %3, ptr %ehselector.slot, align 4
  call void @_ZNSaIcED1Ev(ptr noundef nonnull align 1 dereferenceable(1) %ref.tmp) #3
  br label %eh.resume

sw.bb1:                                           ; preds = %entry
  call void @_ZNSaIcEC1Ev(ptr noundef nonnull align 1 dereferenceable(1) %ref.tmp2) #3
  invoke void @_ZNSt7__cxx1112basic_stringIcSt11char_traitsIcESaIcEEC2IS3_EEPKcRKS3_(ptr noundef nonnull align 8 dereferenceable(32) %agg.result, ptr noundef @.str.2, ptr noundef nonnull align 1 dereferenceable(1) %ref.tmp2)
          to label %invoke.cont4 unwind label %lpad3

invoke.cont4:                                     ; preds = %sw.bb1
  call void @_ZNSaIcED1Ev(ptr noundef nonnull align 1 dereferenceable(1) %ref.tmp2) #3
  br label %return

lpad3:                                            ; preds = %sw.bb1
  %4 = landingpad { ptr, i32 }
          cleanup
  %5 = extractvalue { ptr, i32 } %4, 0
  store ptr %5, ptr %exn.slot, align 8
  %6 = extractvalue { ptr, i32 } %4, 1
  store i32 %6, ptr %ehselector.slot, align 4
  call void @_ZNSaIcED1Ev(ptr noundef nonnull align 1 dereferenceable(1) %ref.tmp2) #3
  br label %eh.resume

sw.default:                                       ; preds = %entry
  store ptr %agg.tmp, ptr %this.addr.i, align 8
  store ptr @.str.3, ptr %s.addr.i, align 8
  %this1.i = load ptr, ptr %this.addr.i, align 8
  %7 = load ptr, ptr %s.addr.i, align 8
  store ptr %this1.i, ptr %this.addr.i15, align 8
  store ptr %7, ptr %s.addr.i16, align 8
  %this1.i17 = load ptr, ptr %this.addr.i15, align 8
  %8 = load ptr, ptr %s.addr.i16, align 8
  store ptr %8, ptr %this1.i17, align 8
  %size_.i = getelementptr inbounds %"class.fmt::v8::basic_string_view", ptr %this1.i17, i32 0, i32 1
  %9 = load ptr, ptr %s.addr.i16, align 8
  %call.i = call noundef i64 @_ZNSt11char_traitsIcE6lengthEPKc(ptr noundef %9)
  store i64 %call.i, ptr %size_.i, align 8
  %10 = load ptr, ptr %s.addr.i, align 8
  store ptr %10, ptr %.addr.i, align 8
  %11 = load i32, ptr %kind.addr, align 4
  store i32 %11, ptr %ref.tmp5, align 4
  %12 = getelementptr inbounds { ptr, i64 }, ptr %agg.tmp, i32 0, i32 0
  %13 = load ptr, ptr %12, align 8
  %14 = getelementptr inbounds { ptr, i64 }, ptr %agg.tmp, i32 0, i32 1
  %15 = load i64, ptr %14, align 8
  call void @llvm.experimental.noalias.scope.decl(metadata !5)
  store ptr %agg.result, ptr %result.ptr.i, align 8, !noalias !5
  store ptr %13, ptr %fmt.i, align 8, !noalias !5
  %16 = getelementptr inbounds { ptr, i64 }, ptr %fmt.i, i32 0, i32 1
  store i64 %15, ptr %16, align 8, !noalias !5
  store ptr %ref.tmp5, ptr %args.addr.i, align 8, !noalias !5
  store ptr %fmt.i, ptr %this.addr.i7, align 8
  %this1.i8 = load ptr, ptr %this.addr.i7, align 8
  call void @llvm.memcpy.p0.p0.i64(ptr align 8 %retval.i, ptr align 8 %this1.i8, i64 16, i1 false)
  %17 = load { ptr, i64 }, ptr %retval.i, align 8
  %18 = extractvalue { ptr, i64 } %17, 0
  store ptr %18, ptr %agg.tmp.i, align 8, !noalias !5
  %19 = getelementptr inbounds { ptr, i64 }, ptr %agg.tmp.i, i32 0, i32 1
  %20 = extractvalue { ptr, i64 } %17, 1
  store i64 %20, ptr %19, align 8, !noalias !5
  %21 = load ptr, ptr %args.addr.i, align 8, !noalias !5
  %call2.i = call { i64, i64 } @_ZN3fmt2v816make_format_argsINS0_20basic_format_contextINS0_8appenderEcEEJRiEEENS0_16format_arg_storeIT_JDpNSt9remove_cvINSt16remove_referenceIT0_E4typeEE4typeEEEEDpOSA_(ptr noundef nonnull align 4 dereferenceable(4) %21)
  %22 = extractvalue { i64, i64 } %call2.i, 0
  store i64 %22, ptr %ref.tmp.i, align 16, !noalias !5
  %23 = getelementptr inbounds { i64, i64 }, ptr %ref.tmp.i, i32 0, i32 1
  %24 = extractvalue { i64, i64 } %call2.i, 1
  store i64 %24, ptr %23, align 8, !noalias !5
  store ptr %agg.tmp1.i, ptr %this.addr.i9, align 8
  store ptr %ref.tmp.i, ptr %store.addr.i, align 8
  %this1.i10 = load ptr, ptr %this.addr.i9, align 8
  %25 = load ptr, ptr %store.addr.i, align 8
  store ptr %25, ptr %this.addr.i11, align 8
  %this1.i12 = load ptr, ptr %this.addr.i11, align 8
  store ptr %this1.i10, ptr %this.addr.i13, align 8
  store i64 1, ptr %desc.addr.i, align 8
  store ptr %this1.i12, ptr %values.addr.i, align 8
  %this1.i14 = load ptr, ptr %this.addr.i13, align 8
  %26 = load i64, ptr %desc.addr.i, align 8
  store i64 %26, ptr %this1.i14, align 8
  %27 = getelementptr inbounds %"class.fmt::v8::basic_format_args", ptr %this1.i14, i32 0, i32 1
  %28 = load ptr, ptr %values.addr.i, align 8
  store ptr %28, ptr %27, align 8
  %29 = load ptr, ptr %agg.tmp.i, align 8, !noalias !5
  %30 = getelementptr inbounds { ptr, i64 }, ptr %agg.tmp.i, i32 0, i32 1
  %31 = load i64, ptr %30, align 8, !noalias !5
  %32 = load i64, ptr %agg.tmp1.i, align 8, !noalias !5
  %33 = getelementptr inbounds { i64, ptr }, ptr %agg.tmp1.i, i32 0, i32 1
  %34 = load ptr, ptr %33, align 8, !noalias !5
  call void @_ZN3fmt2v87vformatB5cxx11ENS0_17basic_string_viewIcEENS0_17basic_format_argsINS0_20basic_format_contextINS0_8appenderEcEEEE(ptr sret(%"class.std::__cxx11::basic_string") align 8 %agg.result, ptr %29, i64 %31, i64 %32, ptr %34)
  br label %return

return:                                           ; preds = %sw.default, %invoke.cont4, %invoke.cont
  ret void

eh.resume:                                        ; preds = %lpad3, %lpad
  %exn = load ptr, ptr %exn.slot, align 8
  %sel = load i32, ptr %ehselector.slot, align 4
  %lpad.val = insertvalue { ptr, i32 } poison, ptr %exn, 0
  %lpad.val6 = insertvalue { ptr, i32 } %lpad.val, i32 %sel, 1
  resume { ptr, i32 } %lpad.val6
}