; Function Attrs: mustprogress uwtable
define void @_ZN8facebook5velox6memory15MemoryAllocator10kindStringB5cxx11ENS2_4KindE(ptr noalias sret(%"class.std::__cxx11::basic_string") align 8 %agg.result, i32 noundef %kind) local_unnamed_addr #4 align 2 personality ptr @__gxx_personality_v0 {
entry:
  %ref.tmp.i = alloca %"class.fmt::v8::format_arg_store", align 16
  %ref.tmp = alloca %"class.std::allocator", align 1
  %ref.tmp2 = alloca %"class.std::allocator", align 1
  switch i32 %kind, label %sw.default [
    i32 0, label %sw.bb
    i32 1, label %sw.bb1
  ]

sw.bb:                                            ; preds = %entry
  call void @_ZNSaIcEC1Ev(ptr noundef nonnull align 1 dereferenceable(1) %ref.tmp) #13
  %call.i56 = invoke noundef ptr @_ZNSt7__cxx1112basic_stringIcSt11char_traitsIcESaIcEE13_M_local_dataEv(ptr noundef nonnull align 8 dereferenceable(32) %agg.result)
          to label %call.i5.noexc unwind label %lpad

call.i5.noexc:                                    ; preds = %sw.bb
  invoke void @_ZNSt7__cxx1112basic_stringIcSt11char_traitsIcESaIcEE12_Alloc_hiderC1EPcRKS3_(ptr noundef nonnull align 8 dereferenceable(8) %agg.result, ptr noundef %call.i56, ptr noundef nonnull align 1 dereferenceable(1) %ref.tmp)
          to label %.noexc unwind label %lpad

.noexc:                                           ; preds = %call.i5.noexc
  invoke void @_ZNSt7__cxx1112basic_stringIcSt11char_traitsIcESaIcEE12_M_constructIPKcEEvT_S8_St20forward_iterator_tag(ptr noundef nonnull align 8 dereferenceable(32) %agg.result, ptr noundef nonnull @.str, ptr noundef nonnull getelementptr inbounds ([7 x i8], ptr @.str, i64 0, i64 6))
          to label %invoke.cont unwind label %lpad.i

lpad.i:                                           ; preds = %.noexc
  %0 = landingpad { ptr, i32 }
          cleanup
  call void @_ZNSaIcED2Ev(ptr noundef nonnull align 1 dereferenceable(1) %agg.result) #13
  br label %eh.resume

invoke.cont:                                      ; preds = %.noexc
  call void @_ZNSaIcED1Ev(ptr noundef nonnull align 1 dereferenceable(1) %ref.tmp) #13
  br label %return

lpad:                                             ; preds = %call.i5.noexc, %sw.bb
  %1 = landingpad { ptr, i32 }
          cleanup
  br label %eh.resume

sw.bb1:                                           ; preds = %entry
  call void @_ZNSaIcEC1Ev(ptr noundef nonnull align 1 dereferenceable(1) %ref.tmp2) #13
  %call.i711 = invoke noundef ptr @_ZNSt7__cxx1112basic_stringIcSt11char_traitsIcESaIcEE13_M_local_dataEv(ptr noundef nonnull align 8 dereferenceable(32) %agg.result)
          to label %call.i7.noexc unwind label %lpad3

call.i7.noexc:                                    ; preds = %sw.bb1
  invoke void @_ZNSt7__cxx1112basic_stringIcSt11char_traitsIcESaIcEE12_Alloc_hiderC1EPcRKS3_(ptr noundef nonnull align 8 dereferenceable(8) %agg.result, ptr noundef %call.i711, ptr noundef nonnull align 1 dereferenceable(1) %ref.tmp2)
          to label %.noexc12 unwind label %lpad3

.noexc12:                                         ; preds = %call.i7.noexc
  invoke void @_ZNSt7__cxx1112basic_stringIcSt11char_traitsIcESaIcEE12_M_constructIPKcEEvT_S8_St20forward_iterator_tag(ptr noundef nonnull align 8 dereferenceable(32) %agg.result, ptr noundef nonnull @.str.2, ptr noundef nonnull getelementptr inbounds ([5 x i8], ptr @.str.2, i64 0, i64 4))
          to label %invoke.cont4 unwind label %lpad.i10

lpad.i10:                                         ; preds = %.noexc12
  %2 = landingpad { ptr, i32 }
          cleanup
  call void @_ZNSaIcED2Ev(ptr noundef nonnull align 1 dereferenceable(1) %agg.result) #13
  br label %eh.resume

invoke.cont4:                                     ; preds = %.noexc12
  call void @_ZNSaIcED1Ev(ptr noundef nonnull align 1 dereferenceable(1) %ref.tmp2) #13
  br label %return

lpad3:                                            ; preds = %call.i7.noexc, %sw.bb1
  %3 = landingpad { ptr, i32 }
          cleanup
  br label %eh.resume

sw.default:                                       ; preds = %entry
  %retval.i.sroa.0.0.insert.ext.i = zext i32 %kind to i64
  store i64 %retval.i.sroa.0.0.insert.ext.i, ptr %ref.tmp.i, align 16, !noalias !5
  call void @_ZN3fmt2v87vformatB5cxx11ENS0_17basic_string_viewIcEENS0_17basic_format_argsINS0_20basic_format_contextINS0_8appenderEcEEEE(ptr sret(%"class.std::__cxx11::basic_string") align 8 %agg.result, ptr nonnull @.str.3, i64 11, i64 1, ptr nonnull %ref.tmp.i)
  br label %return

return:                                           ; preds = %sw.default, %invoke.cont4, %invoke.cont
  ret void

eh.resume:                                        ; preds = %lpad3, %lpad.i10, %lpad, %lpad.i
  %ref.tmp2.sink = phi ptr [ %ref.tmp, %lpad.i ], [ %ref.tmp, %lpad ], [ %ref.tmp2, %lpad.i10 ], [ %ref.tmp2, %lpad3 ]
  %.pn = phi { ptr, i32 } [ %0, %lpad.i ], [ %1, %lpad ], [ %2, %lpad.i10 ], [ %3, %lpad3 ]
  call void @_ZNSaIcED1Ev(ptr noundef nonnull align 1 dereferenceable(1) %ref.tmp2.sink) #13
  resume { ptr, i32 } %.pn
}